(lp0
(S'cppflags'
p1
ccopy_reg
_reconstructor
p2
(cino.utils
SpaceList
p3
c__builtin__
list
p4
(lp5
S'-mmcu=atmega2560'
p6
aS'-DF_CPU=16000000L'
p7
aS'-DARDUINO=100'
p8
aS'-I/usr/share/arduino/hardware/arduino/cores/arduino'
p9
aS'-ffunction-sections'
p10
aS'-fdata-sections'
p11
aS'-g'
p12
aS'-Os'
p13
aS'-w'
p14
aS'-I/usr/share/arduino/hardware/arduino/variants/mega'
p15
aS'-I/usr/share/arduino/libraries/EEPROM'
p16
aS'-I/usr/share/arduino/libraries/SPI'
p17
aS'-I/usr/share/arduino/libraries/Wire'
p18
aS'-I/usr/share/arduino/libraries/Wire/utility'
p19
aS'-I/usr/share/arduino/hardware/arduino/cores/arduino'
p20
atp21
Rp22
tp23
a(S'version.txt'
p24
S'/usr/share/arduino/lib/version.txt'
p25
tp26
a(S'used_libs'
p27
(lp28
S'/usr/share/arduino/libraries/EEPROM'
p29
aS'/usr/share/arduino/libraries/SPI'
p30
aS'/usr/share/arduino/libraries/Wire'
p31
aS'/usr/share/arduino/hardware/arduino/cores/arduino'
p32
atp33
a(S'cc'
p34
S'/usr/bin/avr-gcc'
p35
tp36
a(S'make'
p37
S'/usr/bin/make'
p38
tp39
a(S'build_dir'
p40
S'.build/mega2560'
p41
tp42
a(S'arduino_core_dir'
p43
g32
tp44
a(S'boards.txt'
p45
(lp46
S'/usr/share/arduino/hardware/arduino/boards.txt'
p47
atp48
a(S'cxxflags'
p49
g2
(g3
g4
(lp50
S'-fno-exceptions'
p51
atp52
Rp53
tp54
a(S'arduino_variants_dir'
p55
S'/usr/share/arduino/hardware/arduino/variants'
p56
tp57
a(S'deps'
p58
g2
(g3
g4
(lp59
S'.build/mega2560/src/dependencies.d'
p60
aS'.build/mega2560/arduino/dependencies.d'
p61
aS'.build/mega2560/EEPROM/dependencies.d'
p62
aS'.build/mega2560/SPI/dependencies.d'
p63
aS'.build/mega2560/Wire/dependencies.d'
p64
atp65
Rp66
tp67
a(S'ar'
p68
S'/usr/bin/avr-ar'
p69
tp70
a(S'names'
p71
(dp72
S'cpp'
p73
S'%s.cpp'
p74
sS'obj'
p75
S'%s.o'
p76
sg58
S'%s.d'
p77
sS'lib'
p78
S'lib%s.a'
p79
stp80
a(S'cflags'
p81
g2
(g3
g4
(lp82
tp83
Rp84
tp85
a(S'ldflags'
p86
g2
(g3
g4
(lp87
g6
aS'-Wl,-Os'
p88
aS'-Wl,--gc-sections'
p89
atp90
Rp91
tp92
a(S'arduino_libraries_dir'
p93
S'/usr/share/arduino/libraries'
p94
tp95
a(S'arduino_lib_version'
p96
g2
(cino.environment
Version
p97
c__builtin__
tuple
p98
(I1
I0
I0
tp99
tp100
Rp101
tp102
a(S'objcopy'
p103
S'/usr/bin/avr-objcopy'
p104
tp105
a(S'board_models'
p106
cino.environment
BoardModels
p107
((lp108
(lp109
S'uno'
p110
a(dp111
S'build'
p112
(dp113
S'core'
p114
S'arduino'
p115
sS'mcu'
p116
S'atmega328p'
p117
sS'f_cpu'
p118
S'16000000L'
p119
sS'variant'
p120
S'standard'
p121
ssS'bootloader'
p122
(dp123
S'extended_fuses'
p124
S'0x05'
p125
sS'high_fuses'
p126
S'0xde'
p127
sS'low_fuses'
p128
S'0xff'
p129
sS'lock_bits'
p130
S'0x0F'
p131
sS'file'
p132
S'optiboot_atmega328.hex'
p133
sS'path'
p134
S'optiboot'
p135
sS'unlock_bits'
p136
S'0x3F'
p137
ssS'upload'
p138
(dp139
S'speed'
p140
S'115200'
p141
sS'maximum_size'
p142
S'32256'
p143
sS'protocol'
p144
S'arduino'
p145
ssS'name'
p146
S'Arduino Uno'
p147
sS'_coredir'
p148
S'/usr/share/arduino/hardware/arduino'
p149
saa(lp150
S'atmega328'
p151
a(dp152
S'build'
p153
(dp154
S'core'
p155
S'arduino'
p156
sS'mcu'
p157
S'atmega328p'
p158
sS'f_cpu'
p159
S'16000000L'
p160
sS'variant'
p161
S'standard'
p162
ssS'bootloader'
p163
(dp164
S'extended_fuses'
p165
S'0x05'
p166
sS'high_fuses'
p167
S'0xDA'
p168
sS'low_fuses'
p169
S'0xFF'
p170
sS'lock_bits'
p171
S'0x0F'
p172
sS'file'
p173
S'ATmegaBOOT_168_atmega328.hex'
p174
sS'path'
p175
S'atmega'
p176
sS'unlock_bits'
p177
S'0x3F'
p178
ssS'upload'
p179
(dp180
S'speed'
p181
S'57600'
p182
sS'maximum_size'
p183
S'30720'
p184
sS'protocol'
p185
S'arduino'
p186
ssS'name'
p187
S'Arduino Duemilanove w/ ATmega328'
p188
sg148
S'/usr/share/arduino/hardware/arduino'
p189
saa(lp190
S'diecimila'
p191
a(dp192
S'build'
p193
(dp194
S'core'
p195
S'arduino'
p196
sS'mcu'
p197
S'atmega168'
p198
sS'f_cpu'
p199
S'16000000L'
p200
sS'variant'
p201
S'standard'
p202
ssS'bootloader'
p203
(dp204
S'extended_fuses'
p205
S'0x00'
p206
sS'high_fuses'
p207
S'0xdd'
p208
sS'low_fuses'
p209
S'0xff'
p210
sS'lock_bits'
p211
S'0x0F'
p212
sS'file'
p213
S'ATmegaBOOT_168_diecimila.hex'
p214
sS'path'
p215
S'atmega'
p216
sS'unlock_bits'
p217
S'0x3F'
p218
ssS'upload'
p219
(dp220
S'speed'
p221
S'19200'
p222
sS'maximum_size'
p223
S'14336'
p224
sS'protocol'
p225
S'arduino'
p226
ssS'name'
p227
S'Arduino Diecimila or Duemilanove w/ ATmega168'
p228
sg148
S'/usr/share/arduino/hardware/arduino'
p229
saa(lp230
S'nano328'
p231
a(dp232
S'build'
p233
(dp234
S'core'
p235
S'arduino'
p236
sS'mcu'
p237
S'atmega328p'
p238
sS'f_cpu'
p239
S'16000000L'
p240
sS'variant'
p241
S'eightanaloginputs'
p242
ssS'bootloader'
p243
(dp244
S'extended_fuses'
p245
S'0x05'
p246
sS'high_fuses'
p247
S'0xDA'
p248
sS'low_fuses'
p249
S'0xFF'
p250
sS'lock_bits'
p251
S'0x0F'
p252
sS'file'
p253
S'ATmegaBOOT_168_atmega328.hex'
p254
sS'path'
p255
S'atmega'
p256
sS'unlock_bits'
p257
S'0x3F'
p258
ssS'upload'
p259
(dp260
S'speed'
p261
S'57600'
p262
sS'maximum_size'
p263
S'30720'
p264
sS'protocol'
p265
S'arduino'
p266
ssS'name'
p267
S'Arduino Nano w/ ATmega328'
p268
sg148
S'/usr/share/arduino/hardware/arduino'
p269
saa(lp270
S'nano'
p271
a(dp272
S'build'
p273
(dp274
S'core'
p275
S'arduino'
p276
sS'mcu'
p277
S'atmega168'
p278
sS'f_cpu'
p279
S'16000000L'
p280
sS'variant'
p281
S'eightanaloginputs'
p282
ssS'bootloader'
p283
(dp284
S'extended_fuses'
p285
S'0x00'
p286
sS'high_fuses'
p287
S'0xdd'
p288
sS'low_fuses'
p289
S'0xff'
p290
sS'lock_bits'
p291
S'0x0F'
p292
sS'file'
p293
S'ATmegaBOOT_168_diecimila.hex'
p294
sS'path'
p295
S'atmega'
p296
sS'unlock_bits'
p297
S'0x3F'
p298
ssS'upload'
p299
(dp300
S'speed'
p301
S'19200'
p302
sS'maximum_size'
p303
S'14336'
p304
sS'protocol'
p305
S'arduino'
p306
ssS'name'
p307
S'Arduino Nano w/ ATmega168'
p308
sg148
S'/usr/share/arduino/hardware/arduino'
p309
saa(lp310
S'mega2560'
p311
a(dp312
S'build'
p313
(dp314
S'core'
p315
S'arduino'
p316
sS'mcu'
p317
S'atmega2560'
p318
sS'f_cpu'
p319
S'16000000L'
p320
sS'variant'
p321
S'mega'
p322
ssS'bootloader'
p323
(dp324
S'extended_fuses'
p325
S'0xFD'
p326
sS'high_fuses'
p327
S'0xD8'
p328
sS'low_fuses'
p329
S'0xFF'
p330
sS'lock_bits'
p331
S'0x0F'
p332
sS'file'
p333
S'stk500boot_v2_mega2560.hex'
p334
sS'path'
p335
S'stk500v2'
p336
sS'unlock_bits'
p337
S'0x3F'
p338
ssS'upload'
p339
(dp340
S'speed'
p341
S'115200'
p342
sS'maximum_size'
p343
S'258048'
p344
sS'protocol'
p345
S'stk500v2'
p346
ssS'name'
p347
S'Arduino Mega 2560 or Mega ADK'
p348
sg148
S'/usr/share/arduino/hardware/arduino'
p349
saa(lp350
S'mega'
p351
a(dp352
S'build'
p353
(dp354
S'core'
p355
S'arduino'
p356
sS'mcu'
p357
S'atmega1280'
p358
sS'f_cpu'
p359
S'16000000L'
p360
sS'variant'
p361
S'mega'
p362
ssS'bootloader'
p363
(dp364
S'extended_fuses'
p365
S'0xF5'
p366
sS'high_fuses'
p367
S'0xDA'
p368
sS'low_fuses'
p369
S'0xFF'
p370
sS'lock_bits'
p371
S'0x0F'
p372
sS'file'
p373
S'ATmegaBOOT_168_atmega1280.hex'
p374
sS'path'
p375
S'atmega'
p376
sS'unlock_bits'
p377
S'0x3F'
p378
ssS'upload'
p379
(dp380
S'speed'
p381
S'57600'
p382
sS'maximum_size'
p383
S'126976'
p384
sS'protocol'
p385
S'arduino'
p386
ssS'name'
p387
S'Arduino Mega (ATmega1280)'
p388
sg148
S'/usr/share/arduino/hardware/arduino'
p389
saa(lp390
S'mini328'
p391
a(dp392
S'build'
p393
(dp394
S'core'
p395
S'arduino'
p396
sS'mcu'
p397
S'atmega328p'
p398
sS'f_cpu'
p399
S'16000000L'
p400
sS'variant'
p401
S'eightanaloginputs'
p402
ssS'bootloader'
p403
(dp404
S'extended_fuses'
p405
S'0x05'
p406
sS'high_fuses'
p407
S'0xd8'
p408
sS'low_fuses'
p409
S'0xff'
p410
sS'lock_bits'
p411
S'0x0F'
p412
sS'file'
p413
S'optiboot_atmega328-Mini.hex'
p414
sS'path'
p415
S'optiboot'
p416
sS'unlock_bits'
p417
S'0x3F'
p418
ssS'upload'
p419
(dp420
S'speed'
p421
S'115200'
p422
sS'maximum_size'
p423
S'28672'
p424
sS'protocol'
p425
S'stk500'
p426
ssS'name'
p427
S'Arduino Mini w/ ATmega328'
p428
sg148
S'/usr/share/arduino/hardware/arduino'
p429
saa(lp430
S'mini'
p431
a(dp432
S'build'
p433
(dp434
S'core'
p435
S'arduino'
p436
sS'mcu'
p437
S'atmega168'
p438
sS'f_cpu'
p439
S'16000000L'
p440
sS'variant'
p441
S'eightanaloginputs'
p442
ssS'bootloader'
p443
(dp444
S'extended_fuses'
p445
S'0x00'
p446
sS'high_fuses'
p447
S'0xdd'
p448
sS'low_fuses'
p449
S'0xff'
p450
sS'lock_bits'
p451
S'0x0F'
p452
sS'file'
p453
S'ATmegaBOOT_168_ng.hex'
p454
sS'path'
p455
S'atmega'
p456
sS'unlock_bits'
p457
S'0x3F'
p458
ssS'upload'
p459
(dp460
S'speed'
p461
S'19200'
p462
sS'maximum_size'
p463
S'14336'
p464
sS'protocol'
p465
S'arduino'
p466
ssS'name'
p467
S'Arduino Mini w/ ATmega168'
p468
sg148
S'/usr/share/arduino/hardware/arduino'
p469
saa(lp470
S'ethernet'
p471
a(dp472
S'build'
p473
(dp474
S'f_cpu'
p475
S'16000000L'
p476
sS'mcu'
p477
S'atmega328p'
p478
sS'variant'
p479
S'standard'
p480
sS'core'
p481
S'arduino'
p482
ssS'bootloader'
p483
(dp484
S'extended_fuses'
p485
S'0x05'
p486
sS'high_fuses'
p487
S'0xde'
p488
sS'low_fuses'
p489
S'0xff'
p490
sS'lock_bits'
p491
S'0x0F'
p492
sS'file'
p493
S'optiboot_atmega328.hex'
p494
sS'path'
p495
S'optiboot'
p496
sS'unlock_bits'
p497
S'0x3F'
p498
ssS'upload'
p499
(dp500
S'speed'
p501
S'115200'
p502
sS'maximum_size'
p503
S'32256'
p504
sS'protocol'
p505
S'arduino'
p506
ssS'name'
p507
S'Arduino Ethernet'
p508
sg148
S'/usr/share/arduino/hardware/arduino'
p509
saa(lp510
S'fio'
p511
a(dp512
S'build'
p513
(dp514
S'core'
p515
S'arduino'
p516
sS'mcu'
p517
S'atmega328p'
p518
sS'f_cpu'
p519
S'8000000L'
p520
sS'variant'
p521
S'eightanaloginputs'
p522
ssS'bootloader'
p523
(dp524
S'extended_fuses'
p525
S'0x05'
p526
sS'high_fuses'
p527
S'0xDA'
p528
sS'low_fuses'
p529
S'0xFF'
p530
sS'lock_bits'
p531
S'0x0F'
p532
sS'file'
p533
S'ATmegaBOOT_168_atmega328_pro_8MHz.hex'
p534
sS'path'
p535
S'arduino:atmega'
p536
sS'unlock_bits'
p537
S'0x3F'
p538
ssS'upload'
p539
(dp540
S'speed'
p541
S'57600'
p542
sS'maximum_size'
p543
S'30720'
p544
sS'protocol'
p545
S'arduino'
p546
ssS'name'
p547
S'Arduino Fio'
p548
sg148
S'/usr/share/arduino/hardware/arduino'
p549
saa(lp550
S'bt328'
p551
a(dp552
S'build'
p553
(dp554
S'core'
p555
S'arduino'
p556
sS'mcu'
p557
S'atmega328p'
p558
sS'f_cpu'
p559
S'16000000L'
p560
sS'variant'
p561
S'eightanaloginputs'
p562
ssS'bootloader'
p563
(dp564
S'extended_fuses'
p565
S'0x05'
p566
sS'high_fuses'
p567
S'0xd8'
p568
sS'low_fuses'
p569
S'0xff'
p570
sS'lock_bits'
p571
S'0x0F'
p572
sS'file'
p573
S'ATmegaBOOT_168_atmega328_bt.hex'
p574
sS'path'
p575
S'bt'
p576
sS'unlock_bits'
p577
S'0x3F'
p578
ssS'upload'
p579
(dp580
S'speed'
p581
S'19200'
p582
sS'maximum_size'
p583
S'28672'
p584
sS'protocol'
p585
S'arduino'
p586
sS'disable_flushing'
p587
S'true'
p588
ssS'name'
p589
S'Arduino BT w/ ATmega328'
p590
sg148
S'/usr/share/arduino/hardware/arduino'
p591
saa(lp592
S'bt'
p593
a(dp594
S'build'
p595
(dp596
S'core'
p597
S'arduino'
p598
sS'mcu'
p599
S'atmega168'
p600
sS'f_cpu'
p601
S'16000000L'
p602
sS'variant'
p603
S'eightanaloginputs'
p604
ssS'bootloader'
p605
(dp606
S'extended_fuses'
p607
S'0x00'
p608
sS'high_fuses'
p609
S'0xdd'
p610
sS'low_fuses'
p611
S'0xff'
p612
sS'lock_bits'
p613
S'0x0F'
p614
sS'file'
p615
S'ATmegaBOOT_168.hex'
p616
sS'path'
p617
S'bt'
p618
sS'unlock_bits'
p619
S'0x3F'
p620
ssS'upload'
p621
(dp622
S'speed'
p623
S'19200'
p624
sS'maximum_size'
p625
S'14336'
p626
sS'protocol'
p627
S'arduino'
p628
sS'disable_flushing'
p629
S'true'
p630
ssS'name'
p631
S'Arduino BT w/ ATmega168'
p632
sg148
S'/usr/share/arduino/hardware/arduino'
p633
saa(lp634
S'lilypad328'
p635
a(dp636
S'build'
p637
(dp638
S'core'
p639
S'arduino'
p640
sS'mcu'
p641
S'atmega328p'
p642
sS'f_cpu'
p643
S'8000000L'
p644
sS'variant'
p645
S'standard'
p646
ssS'bootloader'
p647
(dp648
S'extended_fuses'
p649
S'0x05'
p650
sS'high_fuses'
p651
S'0xDA'
p652
sS'low_fuses'
p653
S'0xFF'
p654
sS'lock_bits'
p655
S'0x0F'
p656
sS'file'
p657
S'ATmegaBOOT_168_atmega328_pro_8MHz.hex'
p658
sS'path'
p659
S'atmega'
p660
sS'unlock_bits'
p661
S'0x3F'
p662
ssS'upload'
p663
(dp664
S'speed'
p665
S'57600'
p666
sS'maximum_size'
p667
S'30720'
p668
sS'protocol'
p669
S'arduino'
p670
ssS'name'
p671
S'LilyPad Arduino w/ ATmega328'
p672
sg148
S'/usr/share/arduino/hardware/arduino'
p673
saa(lp674
S'lilypad'
p675
a(dp676
S'build'
p677
(dp678
S'core'
p679
S'arduino'
p680
sS'mcu'
p681
S'atmega168'
p682
sS'f_cpu'
p683
S'8000000L'
p684
sS'variant'
p685
S'standard'
p686
ssS'bootloader'
p687
(dp688
S'extended_fuses'
p689
S'0x00'
p690
sS'high_fuses'
p691
S'0xdd'
p692
sS'low_fuses'
p693
S'0xe2'
p694
sS'lock_bits'
p695
S'0x0F'
p696
sS'file'
p697
S'LilyPadBOOT_168.hex'
p698
sS'path'
p699
S'lilypad'
p700
sS'unlock_bits'
p701
S'0x3F'
p702
ssS'upload'
p703
(dp704
S'speed'
p705
S'19200'
p706
sS'maximum_size'
p707
S'14336'
p708
sS'protocol'
p709
S'arduino'
p710
ssS'name'
p711
S'LilyPad Arduino w/ ATmega168'
p712
sg148
S'/usr/share/arduino/hardware/arduino'
p713
saa(lp714
S'pro5v328'
p715
a(dp716
S'build'
p717
(dp718
S'core'
p719
S'arduino'
p720
sS'mcu'
p721
S'atmega328p'
p722
sS'f_cpu'
p723
S'16000000L'
p724
sS'variant'
p725
S'standard'
p726
ssS'bootloader'
p727
(dp728
S'extended_fuses'
p729
S'0x05'
p730
sS'high_fuses'
p731
S'0xDA'
p732
sS'low_fuses'
p733
S'0xFF'
p734
sS'lock_bits'
p735
S'0x0F'
p736
sS'file'
p737
S'ATmegaBOOT_168_atmega328.hex'
p738
sS'path'
p739
S'atmega'
p740
sS'unlock_bits'
p741
S'0x3F'
p742
ssS'upload'
p743
(dp744
S'speed'
p745
S'57600'
p746
sS'maximum_size'
p747
S'30720'
p748
sS'protocol'
p749
S'arduino'
p750
ssS'name'
p751
S'Arduino Pro or Pro Mini (5V, 16 MHz) w/ ATmega328'
p752
sg148
S'/usr/share/arduino/hardware/arduino'
p753
saa(lp754
S'pro5v'
p755
a(dp756
S'build'
p757
(dp758
S'core'
p759
S'arduino'
p760
sS'mcu'
p761
S'atmega168'
p762
sS'f_cpu'
p763
S'16000000L'
p764
sS'variant'
p765
S'standard'
p766
ssS'bootloader'
p767
(dp768
S'extended_fuses'
p769
S'0x00'
p770
sS'high_fuses'
p771
S'0xdd'
p772
sS'low_fuses'
p773
S'0xff'
p774
sS'lock_bits'
p775
S'0x0F'
p776
sS'file'
p777
S'ATmegaBOOT_168_diecimila.hex'
p778
sS'path'
p779
S'atmega'
p780
sS'unlock_bits'
p781
S'0x3F'
p782
ssS'upload'
p783
(dp784
S'speed'
p785
S'19200'
p786
sS'maximum_size'
p787
S'14336'
p788
sS'protocol'
p789
S'arduino'
p790
ssS'name'
p791
S'Arduino Pro or Pro Mini (5V, 16 MHz) w/ ATmega168'
p792
sg148
S'/usr/share/arduino/hardware/arduino'
p793
saa(lp794
S'pro328'
p795
a(dp796
S'build'
p797
(dp798
S'core'
p799
S'arduino'
p800
sS'mcu'
p801
S'atmega328p'
p802
sS'f_cpu'
p803
S'8000000L'
p804
sS'variant'
p805
S'standard'
p806
ssS'bootloader'
p807
(dp808
S'extended_fuses'
p809
S'0x05'
p810
sS'high_fuses'
p811
S'0xDA'
p812
sS'low_fuses'
p813
S'0xFF'
p814
sS'lock_bits'
p815
S'0x0F'
p816
sS'file'
p817
S'ATmegaBOOT_168_atmega328_pro_8MHz.hex'
p818
sS'path'
p819
S'atmega'
p820
sS'unlock_bits'
p821
S'0x3F'
p822
ssS'upload'
p823
(dp824
S'speed'
p825
S'57600'
p826
sS'maximum_size'
p827
S'30720'
p828
sS'protocol'
p829
S'arduino'
p830
ssS'name'
p831
S'Arduino Pro or Pro Mini (3.3V, 8 MHz) w/ ATmega328'
p832
sg148
S'/usr/share/arduino/hardware/arduino'
p833
saa(lp834
S'pro'
p835
a(dp836
S'build'
p837
(dp838
S'core'
p839
S'arduino'
p840
sS'mcu'
p841
S'atmega168'
p842
sS'f_cpu'
p843
S'8000000L'
p844
sS'variant'
p845
S'standard'
p846
ssS'bootloader'
p847
(dp848
S'extended_fuses'
p849
S'0x00'
p850
sS'high_fuses'
p851
S'0xdd'
p852
sS'low_fuses'
p853
S'0xc6'
p854
sS'lock_bits'
p855
S'0x0F'
p856
sS'file'
p857
S'ATmegaBOOT_168_pro_8MHz.hex'
p858
sS'path'
p859
S'atmega'
p860
sS'unlock_bits'
p861
S'0x3F'
p862
ssS'upload'
p863
(dp864
S'speed'
p865
S'19200'
p866
sS'maximum_size'
p867
S'14336'
p868
sS'protocol'
p869
S'arduino'
p870
ssS'name'
p871
S'Arduino Pro or Pro Mini (3.3V, 8 MHz) w/ ATmega168'
p872
sg148
S'/usr/share/arduino/hardware/arduino'
p873
saa(lp874
S'atmega168'
p875
a(dp876
S'build'
p877
(dp878
S'core'
p879
S'arduino'
p880
sS'mcu'
p881
S'atmega168'
p882
sS'f_cpu'
p883
S'16000000L'
p884
sS'variant'
p885
S'standard'
p886
ssS'bootloader'
p887
(dp888
S'extended_fuses'
p889
S'0x00'
p890
sS'high_fuses'
p891
S'0xdd'
p892
sS'low_fuses'
p893
S'0xff'
p894
sS'lock_bits'
p895
S'0x0F'
p896
sS'file'
p897
S'ATmegaBOOT_168_ng.hex'
p898
sS'path'
p899
S'atmega'
p900
sS'unlock_bits'
p901
S'0x3F'
p902
ssS'upload'
p903
(dp904
S'speed'
p905
S'19200'
p906
sS'maximum_size'
p907
S'14336'
p908
sS'protocol'
p909
S'arduino'
p910
ssS'name'
p911
S'Arduino NG or older w/ ATmega168'
p912
sg148
S'/usr/share/arduino/hardware/arduino'
p913
saa(lp914
S'atmega8'
p915
a(dp916
S'build'
p917
(dp918
S'core'
p919
S'arduino'
p920
sS'mcu'
p921
S'atmega8'
p922
sS'f_cpu'
p923
S'16000000L'
p924
sS'variant'
p925
S'standard'
p926
ssS'bootloader'
p927
(dp928
S'high_fuses'
p929
S'0xca'
p930
sS'low_fuses'
p931
S'0xdf'
p932
sS'lock_bits'
p933
S'0x0F'
p934
sS'file'
p935
S'ATmegaBOOT.hex'
p936
sS'path'
p937
S'atmega8'
p938
sS'unlock_bits'
p939
S'0x3F'
p940
ssS'upload'
p941
(dp942
S'speed'
p943
S'19200'
p944
sS'maximum_size'
p945
S'7168'
p946
sS'protocol'
p947
S'arduino'
p948
ssS'name'
p949
S'Arduino NG or older w/ ATmega8'
p950
sg148
S'/usr/share/arduino/hardware/arduino'
p951
saatp952
Rp953
(dp954
S'default'
p955
S'uno'
p956
sbtp957
a(S'cxx'
p958
S'/usr/bin/avr-g++'
p959
tp960
a.