(lp0
(S'cppflags'
p1
ccopy_reg
_reconstructor
p2
(cino.utils
SpaceList
p3
c__builtin__
list
p4
(lp5
S'-mmcu=atmega2560'
p6
aS'-DF_CPU=16000000L'
p7
aS'-DARDUINO=100'
p8
aS'-I/usr/share/arduino/hardware/arduino/cores/arduino'
p9
aS'-ffunction-sections'
p10
aS'-fdata-sections'
p11
aS'-g'
p12
aS'-Os'
p13
aS'-w'
p14
aS'-I/usr/share/arduino/hardware/arduino/variants/mega'
p15
aS'-I/usr/share/arduino/libraries/Wire'
p16
aS'-I/usr/share/arduino/libraries/Wire/utility'
p17
aS'-I/usr/share/arduino/hardware/arduino/cores/arduino'
p18
atp19
Rp20
tp21
a(S'version.txt'
p22
S'/usr/share/arduino/lib/version.txt'
p23
tp24
a(S'used_libs'
p25
(lp26
S'/usr/share/arduino/libraries/Wire'
p27
aS'/usr/share/arduino/hardware/arduino/cores/arduino'
p28
atp29
a(S'cc'
p30
S'/usr/bin/avr-gcc'
p31
tp32
a(S'make'
p33
S'/usr/bin/make'
p34
tp35
a(S'build_dir'
p36
S'.build/mega2560'
p37
tp38
a(S'arduino_core_dir'
p39
g28
tp40
a(S'boards.txt'
p41
(lp42
S'/usr/share/arduino/hardware/arduino/boards.txt'
p43
atp44
a(S'cxxflags'
p45
g2
(g3
g4
(lp46
S'-fno-exceptions'
p47
atp48
Rp49
tp50
a(S'arduino_variants_dir'
p51
S'/usr/share/arduino/hardware/arduino/variants'
p52
tp53
a(S'deps'
p54
g2
(g3
g4
(lp55
S'.build/mega2560/src/dependencies.d'
p56
aS'.build/mega2560/arduino/dependencies.d'
p57
aS'.build/mega2560/Wire/dependencies.d'
p58
atp59
Rp60
tp61
a(S'ar'
p62
S'/usr/bin/avr-ar'
p63
tp64
a(S'names'
p65
(dp66
S'cpp'
p67
S'%s.cpp'
p68
sS'obj'
p69
S'%s.o'
p70
sg54
S'%s.d'
p71
sS'lib'
p72
S'lib%s.a'
p73
stp74
a(S'cflags'
p75
g2
(g3
g4
(lp76
tp77
Rp78
tp79
a(S'ldflags'
p80
g2
(g3
g4
(lp81
g6
aS'-Wl,-Os'
p82
aS'-Wl,--gc-sections'
p83
atp84
Rp85
tp86
a(S'arduino_libraries_dir'
p87
S'/usr/share/arduino/libraries'
p88
tp89
a(S'arduino_lib_version'
p90
g2
(cino.environment
Version
p91
c__builtin__
tuple
p92
(I1
I0
I0
tp93
tp94
Rp95
tp96
a(S'objcopy'
p97
S'/usr/bin/avr-objcopy'
p98
tp99
a(S'board_models'
p100
cino.environment
BoardModels
p101
((lp102
(lp103
S'uno'
p104
a(dp105
S'build'
p106
(dp107
S'core'
p108
S'arduino'
p109
sS'mcu'
p110
S'atmega328p'
p111
sS'f_cpu'
p112
S'16000000L'
p113
sS'variant'
p114
S'standard'
p115
ssS'bootloader'
p116
(dp117
S'extended_fuses'
p118
S'0x05'
p119
sS'high_fuses'
p120
S'0xde'
p121
sS'low_fuses'
p122
S'0xff'
p123
sS'lock_bits'
p124
S'0x0F'
p125
sS'file'
p126
S'optiboot_atmega328.hex'
p127
sS'path'
p128
S'optiboot'
p129
sS'unlock_bits'
p130
S'0x3F'
p131
ssS'upload'
p132
(dp133
S'speed'
p134
S'115200'
p135
sS'maximum_size'
p136
S'32256'
p137
sS'protocol'
p138
S'arduino'
p139
ssS'name'
p140
S'Arduino Uno'
p141
sS'_coredir'
p142
S'/usr/share/arduino/hardware/arduino'
p143
saa(lp144
S'atmega328'
p145
a(dp146
S'build'
p147
(dp148
S'core'
p149
S'arduino'
p150
sS'mcu'
p151
S'atmega328p'
p152
sS'f_cpu'
p153
S'16000000L'
p154
sS'variant'
p155
S'standard'
p156
ssS'bootloader'
p157
(dp158
S'extended_fuses'
p159
S'0x05'
p160
sS'high_fuses'
p161
S'0xDA'
p162
sS'low_fuses'
p163
S'0xFF'
p164
sS'lock_bits'
p165
S'0x0F'
p166
sS'file'
p167
S'ATmegaBOOT_168_atmega328.hex'
p168
sS'path'
p169
S'atmega'
p170
sS'unlock_bits'
p171
S'0x3F'
p172
ssS'upload'
p173
(dp174
S'speed'
p175
S'57600'
p176
sS'maximum_size'
p177
S'30720'
p178
sS'protocol'
p179
S'arduino'
p180
ssS'name'
p181
S'Arduino Duemilanove w/ ATmega328'
p182
sg142
S'/usr/share/arduino/hardware/arduino'
p183
saa(lp184
S'diecimila'
p185
a(dp186
S'build'
p187
(dp188
S'core'
p189
S'arduino'
p190
sS'mcu'
p191
S'atmega168'
p192
sS'f_cpu'
p193
S'16000000L'
p194
sS'variant'
p195
S'standard'
p196
ssS'bootloader'
p197
(dp198
S'extended_fuses'
p199
S'0x00'
p200
sS'high_fuses'
p201
S'0xdd'
p202
sS'low_fuses'
p203
S'0xff'
p204
sS'lock_bits'
p205
S'0x0F'
p206
sS'file'
p207
S'ATmegaBOOT_168_diecimila.hex'
p208
sS'path'
p209
S'atmega'
p210
sS'unlock_bits'
p211
S'0x3F'
p212
ssS'upload'
p213
(dp214
S'speed'
p215
S'19200'
p216
sS'maximum_size'
p217
S'14336'
p218
sS'protocol'
p219
S'arduino'
p220
ssS'name'
p221
S'Arduino Diecimila or Duemilanove w/ ATmega168'
p222
sg142
S'/usr/share/arduino/hardware/arduino'
p223
saa(lp224
S'nano328'
p225
a(dp226
S'build'
p227
(dp228
S'core'
p229
S'arduino'
p230
sS'mcu'
p231
S'atmega328p'
p232
sS'f_cpu'
p233
S'16000000L'
p234
sS'variant'
p235
S'eightanaloginputs'
p236
ssS'bootloader'
p237
(dp238
S'extended_fuses'
p239
S'0x05'
p240
sS'high_fuses'
p241
S'0xDA'
p242
sS'low_fuses'
p243
S'0xFF'
p244
sS'lock_bits'
p245
S'0x0F'
p246
sS'file'
p247
S'ATmegaBOOT_168_atmega328.hex'
p248
sS'path'
p249
S'atmega'
p250
sS'unlock_bits'
p251
S'0x3F'
p252
ssS'upload'
p253
(dp254
S'speed'
p255
S'57600'
p256
sS'maximum_size'
p257
S'30720'
p258
sS'protocol'
p259
S'arduino'
p260
ssS'name'
p261
S'Arduino Nano w/ ATmega328'
p262
sg142
S'/usr/share/arduino/hardware/arduino'
p263
saa(lp264
S'nano'
p265
a(dp266
S'build'
p267
(dp268
S'core'
p269
S'arduino'
p270
sS'mcu'
p271
S'atmega168'
p272
sS'f_cpu'
p273
S'16000000L'
p274
sS'variant'
p275
S'eightanaloginputs'
p276
ssS'bootloader'
p277
(dp278
S'extended_fuses'
p279
S'0x00'
p280
sS'high_fuses'
p281
S'0xdd'
p282
sS'low_fuses'
p283
S'0xff'
p284
sS'lock_bits'
p285
S'0x0F'
p286
sS'file'
p287
S'ATmegaBOOT_168_diecimila.hex'
p288
sS'path'
p289
S'atmega'
p290
sS'unlock_bits'
p291
S'0x3F'
p292
ssS'upload'
p293
(dp294
S'speed'
p295
S'19200'
p296
sS'maximum_size'
p297
S'14336'
p298
sS'protocol'
p299
S'arduino'
p300
ssS'name'
p301
S'Arduino Nano w/ ATmega168'
p302
sg142
S'/usr/share/arduino/hardware/arduino'
p303
saa(lp304
S'mega2560'
p305
a(dp306
S'build'
p307
(dp308
S'core'
p309
S'arduino'
p310
sS'mcu'
p311
S'atmega2560'
p312
sS'f_cpu'
p313
S'16000000L'
p314
sS'variant'
p315
S'mega'
p316
ssS'bootloader'
p317
(dp318
S'extended_fuses'
p319
S'0xFD'
p320
sS'high_fuses'
p321
S'0xD8'
p322
sS'low_fuses'
p323
S'0xFF'
p324
sS'lock_bits'
p325
S'0x0F'
p326
sS'file'
p327
S'stk500boot_v2_mega2560.hex'
p328
sS'path'
p329
S'stk500v2'
p330
sS'unlock_bits'
p331
S'0x3F'
p332
ssS'upload'
p333
(dp334
S'speed'
p335
S'115200'
p336
sS'maximum_size'
p337
S'258048'
p338
sS'protocol'
p339
S'stk500v2'
p340
ssS'name'
p341
S'Arduino Mega 2560 or Mega ADK'
p342
sg142
S'/usr/share/arduino/hardware/arduino'
p343
saa(lp344
S'mega'
p345
a(dp346
S'build'
p347
(dp348
S'core'
p349
S'arduino'
p350
sS'mcu'
p351
S'atmega1280'
p352
sS'f_cpu'
p353
S'16000000L'
p354
sS'variant'
p355
S'mega'
p356
ssS'bootloader'
p357
(dp358
S'extended_fuses'
p359
S'0xF5'
p360
sS'high_fuses'
p361
S'0xDA'
p362
sS'low_fuses'
p363
S'0xFF'
p364
sS'lock_bits'
p365
S'0x0F'
p366
sS'file'
p367
S'ATmegaBOOT_168_atmega1280.hex'
p368
sS'path'
p369
S'atmega'
p370
sS'unlock_bits'
p371
S'0x3F'
p372
ssS'upload'
p373
(dp374
S'speed'
p375
S'57600'
p376
sS'maximum_size'
p377
S'126976'
p378
sS'protocol'
p379
S'arduino'
p380
ssS'name'
p381
S'Arduino Mega (ATmega1280)'
p382
sg142
S'/usr/share/arduino/hardware/arduino'
p383
saa(lp384
S'mini328'
p385
a(dp386
S'build'
p387
(dp388
S'core'
p389
S'arduino'
p390
sS'mcu'
p391
S'atmega328p'
p392
sS'f_cpu'
p393
S'16000000L'
p394
sS'variant'
p395
S'eightanaloginputs'
p396
ssS'bootloader'
p397
(dp398
S'extended_fuses'
p399
S'0x05'
p400
sS'high_fuses'
p401
S'0xd8'
p402
sS'low_fuses'
p403
S'0xff'
p404
sS'lock_bits'
p405
S'0x0F'
p406
sS'file'
p407
S'optiboot_atmega328-Mini.hex'
p408
sS'path'
p409
S'optiboot'
p410
sS'unlock_bits'
p411
S'0x3F'
p412
ssS'upload'
p413
(dp414
S'speed'
p415
S'115200'
p416
sS'maximum_size'
p417
S'28672'
p418
sS'protocol'
p419
S'stk500'
p420
ssS'name'
p421
S'Arduino Mini w/ ATmega328'
p422
sg142
S'/usr/share/arduino/hardware/arduino'
p423
saa(lp424
S'mini'
p425
a(dp426
S'build'
p427
(dp428
S'core'
p429
S'arduino'
p430
sS'mcu'
p431
S'atmega168'
p432
sS'f_cpu'
p433
S'16000000L'
p434
sS'variant'
p435
S'eightanaloginputs'
p436
ssS'bootloader'
p437
(dp438
S'extended_fuses'
p439
S'0x00'
p440
sS'high_fuses'
p441
S'0xdd'
p442
sS'low_fuses'
p443
S'0xff'
p444
sS'lock_bits'
p445
S'0x0F'
p446
sS'file'
p447
S'ATmegaBOOT_168_ng.hex'
p448
sS'path'
p449
S'atmega'
p450
sS'unlock_bits'
p451
S'0x3F'
p452
ssS'upload'
p453
(dp454
S'speed'
p455
S'19200'
p456
sS'maximum_size'
p457
S'14336'
p458
sS'protocol'
p459
S'arduino'
p460
ssS'name'
p461
S'Arduino Mini w/ ATmega168'
p462
sg142
S'/usr/share/arduino/hardware/arduino'
p463
saa(lp464
S'ethernet'
p465
a(dp466
S'build'
p467
(dp468
S'f_cpu'
p469
S'16000000L'
p470
sS'mcu'
p471
S'atmega328p'
p472
sS'variant'
p473
S'standard'
p474
sS'core'
p475
S'arduino'
p476
ssS'bootloader'
p477
(dp478
S'extended_fuses'
p479
S'0x05'
p480
sS'high_fuses'
p481
S'0xde'
p482
sS'low_fuses'
p483
S'0xff'
p484
sS'lock_bits'
p485
S'0x0F'
p486
sS'file'
p487
S'optiboot_atmega328.hex'
p488
sS'path'
p489
S'optiboot'
p490
sS'unlock_bits'
p491
S'0x3F'
p492
ssS'upload'
p493
(dp494
S'speed'
p495
S'115200'
p496
sS'maximum_size'
p497
S'32256'
p498
sS'protocol'
p499
S'arduino'
p500
ssS'name'
p501
S'Arduino Ethernet'
p502
sg142
S'/usr/share/arduino/hardware/arduino'
p503
saa(lp504
S'fio'
p505
a(dp506
S'build'
p507
(dp508
S'core'
p509
S'arduino'
p510
sS'mcu'
p511
S'atmega328p'
p512
sS'f_cpu'
p513
S'8000000L'
p514
sS'variant'
p515
S'eightanaloginputs'
p516
ssS'bootloader'
p517
(dp518
S'extended_fuses'
p519
S'0x05'
p520
sS'high_fuses'
p521
S'0xDA'
p522
sS'low_fuses'
p523
S'0xFF'
p524
sS'lock_bits'
p525
S'0x0F'
p526
sS'file'
p527
S'ATmegaBOOT_168_atmega328_pro_8MHz.hex'
p528
sS'path'
p529
S'arduino:atmega'
p530
sS'unlock_bits'
p531
S'0x3F'
p532
ssS'upload'
p533
(dp534
S'speed'
p535
S'57600'
p536
sS'maximum_size'
p537
S'30720'
p538
sS'protocol'
p539
S'arduino'
p540
ssS'name'
p541
S'Arduino Fio'
p542
sg142
S'/usr/share/arduino/hardware/arduino'
p543
saa(lp544
S'bt328'
p545
a(dp546
S'build'
p547
(dp548
S'core'
p549
S'arduino'
p550
sS'mcu'
p551
S'atmega328p'
p552
sS'f_cpu'
p553
S'16000000L'
p554
sS'variant'
p555
S'eightanaloginputs'
p556
ssS'bootloader'
p557
(dp558
S'extended_fuses'
p559
S'0x05'
p560
sS'high_fuses'
p561
S'0xd8'
p562
sS'low_fuses'
p563
S'0xff'
p564
sS'lock_bits'
p565
S'0x0F'
p566
sS'file'
p567
S'ATmegaBOOT_168_atmega328_bt.hex'
p568
sS'path'
p569
S'bt'
p570
sS'unlock_bits'
p571
S'0x3F'
p572
ssS'upload'
p573
(dp574
S'speed'
p575
S'19200'
p576
sS'maximum_size'
p577
S'28672'
p578
sS'protocol'
p579
S'arduino'
p580
sS'disable_flushing'
p581
S'true'
p582
ssS'name'
p583
S'Arduino BT w/ ATmega328'
p584
sg142
S'/usr/share/arduino/hardware/arduino'
p585
saa(lp586
S'bt'
p587
a(dp588
S'build'
p589
(dp590
S'core'
p591
S'arduino'
p592
sS'mcu'
p593
S'atmega168'
p594
sS'f_cpu'
p595
S'16000000L'
p596
sS'variant'
p597
S'eightanaloginputs'
p598
ssS'bootloader'
p599
(dp600
S'extended_fuses'
p601
S'0x00'
p602
sS'high_fuses'
p603
S'0xdd'
p604
sS'low_fuses'
p605
S'0xff'
p606
sS'lock_bits'
p607
S'0x0F'
p608
sS'file'
p609
S'ATmegaBOOT_168.hex'
p610
sS'path'
p611
S'bt'
p612
sS'unlock_bits'
p613
S'0x3F'
p614
ssS'upload'
p615
(dp616
S'speed'
p617
S'19200'
p618
sS'maximum_size'
p619
S'14336'
p620
sS'protocol'
p621
S'arduino'
p622
sS'disable_flushing'
p623
S'true'
p624
ssS'name'
p625
S'Arduino BT w/ ATmega168'
p626
sg142
S'/usr/share/arduino/hardware/arduino'
p627
saa(lp628
S'lilypad328'
p629
a(dp630
S'build'
p631
(dp632
S'core'
p633
S'arduino'
p634
sS'mcu'
p635
S'atmega328p'
p636
sS'f_cpu'
p637
S'8000000L'
p638
sS'variant'
p639
S'standard'
p640
ssS'bootloader'
p641
(dp642
S'extended_fuses'
p643
S'0x05'
p644
sS'high_fuses'
p645
S'0xDA'
p646
sS'low_fuses'
p647
S'0xFF'
p648
sS'lock_bits'
p649
S'0x0F'
p650
sS'file'
p651
S'ATmegaBOOT_168_atmega328_pro_8MHz.hex'
p652
sS'path'
p653
S'atmega'
p654
sS'unlock_bits'
p655
S'0x3F'
p656
ssS'upload'
p657
(dp658
S'speed'
p659
S'57600'
p660
sS'maximum_size'
p661
S'30720'
p662
sS'protocol'
p663
S'arduino'
p664
ssS'name'
p665
S'LilyPad Arduino w/ ATmega328'
p666
sg142
S'/usr/share/arduino/hardware/arduino'
p667
saa(lp668
S'lilypad'
p669
a(dp670
S'build'
p671
(dp672
S'core'
p673
S'arduino'
p674
sS'mcu'
p675
S'atmega168'
p676
sS'f_cpu'
p677
S'8000000L'
p678
sS'variant'
p679
S'standard'
p680
ssS'bootloader'
p681
(dp682
S'extended_fuses'
p683
S'0x00'
p684
sS'high_fuses'
p685
S'0xdd'
p686
sS'low_fuses'
p687
S'0xe2'
p688
sS'lock_bits'
p689
S'0x0F'
p690
sS'file'
p691
S'LilyPadBOOT_168.hex'
p692
sS'path'
p693
S'lilypad'
p694
sS'unlock_bits'
p695
S'0x3F'
p696
ssS'upload'
p697
(dp698
S'speed'
p699
S'19200'
p700
sS'maximum_size'
p701
S'14336'
p702
sS'protocol'
p703
S'arduino'
p704
ssS'name'
p705
S'LilyPad Arduino w/ ATmega168'
p706
sg142
S'/usr/share/arduino/hardware/arduino'
p707
saa(lp708
S'pro5v328'
p709
a(dp710
S'build'
p711
(dp712
S'core'
p713
S'arduino'
p714
sS'mcu'
p715
S'atmega328p'
p716
sS'f_cpu'
p717
S'16000000L'
p718
sS'variant'
p719
S'standard'
p720
ssS'bootloader'
p721
(dp722
S'extended_fuses'
p723
S'0x05'
p724
sS'high_fuses'
p725
S'0xDA'
p726
sS'low_fuses'
p727
S'0xFF'
p728
sS'lock_bits'
p729
S'0x0F'
p730
sS'file'
p731
S'ATmegaBOOT_168_atmega328.hex'
p732
sS'path'
p733
S'atmega'
p734
sS'unlock_bits'
p735
S'0x3F'
p736
ssS'upload'
p737
(dp738
S'speed'
p739
S'57600'
p740
sS'maximum_size'
p741
S'30720'
p742
sS'protocol'
p743
S'arduino'
p744
ssS'name'
p745
S'Arduino Pro or Pro Mini (5V, 16 MHz) w/ ATmega328'
p746
sg142
S'/usr/share/arduino/hardware/arduino'
p747
saa(lp748
S'pro5v'
p749
a(dp750
S'build'
p751
(dp752
S'core'
p753
S'arduino'
p754
sS'mcu'
p755
S'atmega168'
p756
sS'f_cpu'
p757
S'16000000L'
p758
sS'variant'
p759
S'standard'
p760
ssS'bootloader'
p761
(dp762
S'extended_fuses'
p763
S'0x00'
p764
sS'high_fuses'
p765
S'0xdd'
p766
sS'low_fuses'
p767
S'0xff'
p768
sS'lock_bits'
p769
S'0x0F'
p770
sS'file'
p771
S'ATmegaBOOT_168_diecimila.hex'
p772
sS'path'
p773
S'atmega'
p774
sS'unlock_bits'
p775
S'0x3F'
p776
ssS'upload'
p777
(dp778
S'speed'
p779
S'19200'
p780
sS'maximum_size'
p781
S'14336'
p782
sS'protocol'
p783
S'arduino'
p784
ssS'name'
p785
S'Arduino Pro or Pro Mini (5V, 16 MHz) w/ ATmega168'
p786
sg142
S'/usr/share/arduino/hardware/arduino'
p787
saa(lp788
S'pro328'
p789
a(dp790
S'build'
p791
(dp792
S'core'
p793
S'arduino'
p794
sS'mcu'
p795
S'atmega328p'
p796
sS'f_cpu'
p797
S'8000000L'
p798
sS'variant'
p799
S'standard'
p800
ssS'bootloader'
p801
(dp802
S'extended_fuses'
p803
S'0x05'
p804
sS'high_fuses'
p805
S'0xDA'
p806
sS'low_fuses'
p807
S'0xFF'
p808
sS'lock_bits'
p809
S'0x0F'
p810
sS'file'
p811
S'ATmegaBOOT_168_atmega328_pro_8MHz.hex'
p812
sS'path'
p813
S'atmega'
p814
sS'unlock_bits'
p815
S'0x3F'
p816
ssS'upload'
p817
(dp818
S'speed'
p819
S'57600'
p820
sS'maximum_size'
p821
S'30720'
p822
sS'protocol'
p823
S'arduino'
p824
ssS'name'
p825
S'Arduino Pro or Pro Mini (3.3V, 8 MHz) w/ ATmega328'
p826
sg142
S'/usr/share/arduino/hardware/arduino'
p827
saa(lp828
S'pro'
p829
a(dp830
S'build'
p831
(dp832
S'core'
p833
S'arduino'
p834
sS'mcu'
p835
S'atmega168'
p836
sS'f_cpu'
p837
S'8000000L'
p838
sS'variant'
p839
S'standard'
p840
ssS'bootloader'
p841
(dp842
S'extended_fuses'
p843
S'0x00'
p844
sS'high_fuses'
p845
S'0xdd'
p846
sS'low_fuses'
p847
S'0xc6'
p848
sS'lock_bits'
p849
S'0x0F'
p850
sS'file'
p851
S'ATmegaBOOT_168_pro_8MHz.hex'
p852
sS'path'
p853
S'atmega'
p854
sS'unlock_bits'
p855
S'0x3F'
p856
ssS'upload'
p857
(dp858
S'speed'
p859
S'19200'
p860
sS'maximum_size'
p861
S'14336'
p862
sS'protocol'
p863
S'arduino'
p864
ssS'name'
p865
S'Arduino Pro or Pro Mini (3.3V, 8 MHz) w/ ATmega168'
p866
sg142
S'/usr/share/arduino/hardware/arduino'
p867
saa(lp868
S'atmega168'
p869
a(dp870
S'build'
p871
(dp872
S'core'
p873
S'arduino'
p874
sS'mcu'
p875
S'atmega168'
p876
sS'f_cpu'
p877
S'16000000L'
p878
sS'variant'
p879
S'standard'
p880
ssS'bootloader'
p881
(dp882
S'extended_fuses'
p883
S'0x00'
p884
sS'high_fuses'
p885
S'0xdd'
p886
sS'low_fuses'
p887
S'0xff'
p888
sS'lock_bits'
p889
S'0x0F'
p890
sS'file'
p891
S'ATmegaBOOT_168_ng.hex'
p892
sS'path'
p893
S'atmega'
p894
sS'unlock_bits'
p895
S'0x3F'
p896
ssS'upload'
p897
(dp898
S'speed'
p899
S'19200'
p900
sS'maximum_size'
p901
S'14336'
p902
sS'protocol'
p903
S'arduino'
p904
ssS'name'
p905
S'Arduino NG or older w/ ATmega168'
p906
sg142
S'/usr/share/arduino/hardware/arduino'
p907
saa(lp908
S'atmega8'
p909
a(dp910
S'build'
p911
(dp912
S'core'
p913
S'arduino'
p914
sS'mcu'
p915
S'atmega8'
p916
sS'f_cpu'
p917
S'16000000L'
p918
sS'variant'
p919
S'standard'
p920
ssS'bootloader'
p921
(dp922
S'high_fuses'
p923
S'0xca'
p924
sS'low_fuses'
p925
S'0xdf'
p926
sS'lock_bits'
p927
S'0x0F'
p928
sS'file'
p929
S'ATmegaBOOT.hex'
p930
sS'path'
p931
S'atmega8'
p932
sS'unlock_bits'
p933
S'0x3F'
p934
ssS'upload'
p935
(dp936
S'speed'
p937
S'19200'
p938
sS'maximum_size'
p939
S'7168'
p940
sS'protocol'
p941
S'arduino'
p942
ssS'name'
p943
S'Arduino NG or older w/ ATmega8'
p944
sg142
S'/usr/share/arduino/hardware/arduino'
p945
saatp946
Rp947
(dp948
S'default'
p949
S'uno'
p950
sbtp951
a(S'cxx'
p952
S'/usr/bin/avr-g++'
p953
tp954
a.