(lp0
(S'cppflags'
p1
ccopy_reg
_reconstructor
p2
(cino.utils
SpaceList
p3
c__builtin__
list
p4
(lp5
S'-mmcu=atmega2560'
p6
aS'-DF_CPU=16000000L'
p7
aS'-DARDUINO=100'
p8
aS'-I/usr/share/arduino/hardware/arduino/cores/arduino'
p9
aS'-ffunction-sections'
p10
aS'-fdata-sections'
p11
aS'-g'
p12
aS'-Os'
p13
aS'-w'
p14
aS'-I/usr/share/arduino/hardware/arduino/variants/mega'
p15
aS'-I/usr/share/arduino/libraries/MPU6050'
p16
aS'-I/usr/share/arduino/libraries/MPU6050/Examples'
p17
aS'-I/usr/share/arduino/libraries/MPU6050/Examples/MPU6050_DMP6'
p18
aS'-I/usr/share/arduino/libraries/MPU6050/Examples/MPU6050_raw'
p19
aS'-I/usr/share/arduino/libraries/MPU6050/Examples/MPU6050_DMP6/Processing'
p20
aS'-I/usr/share/arduino/libraries/MPU6050/Examples/MPU6050_DMP6/Processing'
p21
aS'-I/usr/share/arduino/libraries/ros_lib'
p22
aS'-I/usr/share/arduino/libraries/ros_lib/actionlib'
p23
aS'-I/usr/share/arduino/libraries/ros_lib/sensor_msgs'
p24
aS'-I/usr/share/arduino/libraries/ros_lib/tf2_msgs'
p25
aS'-I/usr/share/arduino/libraries/ros_lib/geometry_msgs'
p26
aS'-I/usr/share/arduino/libraries/ros_lib/rosserial_msgs'
p27
aS'-I/usr/share/arduino/libraries/ros_lib/ros'
p28
aS'-I/usr/share/arduino/libraries/ros_lib/tests'
p29
aS'-I/usr/share/arduino/libraries/ros_lib/actionlib_msgs'
p30
aS'-I/usr/share/arduino/libraries/ros_lib/std_msgs'
p31
aS'-I/usr/share/arduino/libraries/ros_lib/tf'
p32
aS'-I/usr/share/arduino/libraries/ros_lib/arduino_msgs'
p33
aS'-I/usr/share/arduino/libraries/ros_lib/diagnostic_msgs'
p34
aS'-I/usr/share/arduino/libraries/ros_lib/roscpp'
p35
aS'-I/usr/share/arduino/libraries/ros_lib/rosgraph_msgs'
p36
aS'-I/usr/share/arduino/libraries/ros_lib/topic_tools'
p37
aS'-I/usr/share/arduino/libraries/ros_lib/tests/float64_test'
p38
aS'-I/usr/share/arduino/libraries/ros_lib/tests/array_test'
p39
aS'-I/usr/share/arduino/libraries/ros_lib/tests/time_test'
p40
aS'-I/usr/share/arduino/libraries/EEPROM'
p41
aS'-I/usr/share/arduino/libraries/OpenROV'
p42
aS'-I/usr/share/arduino/libraries/Wire'
p43
aS'-I/usr/share/arduino/libraries/Wire/utility'
p44
aS'-I/usr/share/arduino/hardware/arduino/cores/arduino'
p45
atp46
Rp47
tp48
a(S'version.txt'
p49
S'/usr/share/arduino/lib/version.txt'
p50
tp51
a(S'used_libs'
p52
(lp53
S'/usr/share/arduino/libraries/MPU6050'
p54
aS'/usr/share/arduino/libraries/ros_lib'
p55
aS'/usr/share/arduino/libraries/EEPROM'
p56
aS'/usr/share/arduino/libraries/OpenROV'
p57
aS'/usr/share/arduino/libraries/Wire'
p58
aS'/usr/share/arduino/hardware/arduino/cores/arduino'
p59
atp60
a(S'cc'
p61
S'/usr/bin/avr-gcc'
p62
tp63
a(S'make'
p64
S'/usr/bin/make'
p65
tp66
a(S'build_dir'
p67
S'.build/mega2560'
p68
tp69
a(S'arduino_core_dir'
p70
g59
tp71
a(S'boards.txt'
p72
(lp73
S'/usr/share/arduino/hardware/arduino/boards.txt'
p74
atp75
a(S'cxxflags'
p76
g2
(g3
g4
(lp77
S'-fno-exceptions'
p78
atp79
Rp80
tp81
a(S'arduino_variants_dir'
p82
S'/usr/share/arduino/hardware/arduino/variants'
p83
tp84
a(S'deps'
p85
g2
(g3
g4
(lp86
S'.build/mega2560/src/dependencies.d'
p87
aS'.build/mega2560/arduino/dependencies.d'
p88
aS'.build/mega2560/Wire/dependencies.d'
p89
aS'.build/mega2560/OpenROV/dependencies.d'
p90
aS'.build/mega2560/MPU6050/dependencies.d'
p91
aS'.build/mega2560/ros_lib/dependencies.d'
p92
aS'.build/mega2560/EEPROM/dependencies.d'
p93
atp94
Rp95
tp96
a(S'ar'
p97
S'/usr/bin/avr-ar'
p98
tp99
a(S'names'
p100
(dp101
S'cpp'
p102
S'%s.cpp'
p103
sS'obj'
p104
S'%s.o'
p105
sg85
S'%s.d'
p106
sS'lib'
p107
S'lib%s.a'
p108
stp109
a(S'cflags'
p110
g2
(g3
g4
(lp111
tp112
Rp113
tp114
a(S'ldflags'
p115
g2
(g3
g4
(lp116
g6
aS'-Wl,-Os'
p117
aS'-Wl,--gc-sections'
p118
atp119
Rp120
tp121
a(S'arduino_libraries_dir'
p122
S'/usr/share/arduino/libraries'
p123
tp124
a(S'arduino_lib_version'
p125
g2
(cino.environment
Version
p126
c__builtin__
tuple
p127
(I1
I0
I0
tp128
tp129
Rp130
tp131
a(S'objcopy'
p132
S'/usr/bin/avr-objcopy'
p133
tp134
a(S'board_models'
p135
cino.environment
BoardModels
p136
((lp137
(lp138
S'uno'
p139
a(dp140
S'build'
p141
(dp142
S'core'
p143
S'arduino'
p144
sS'mcu'
p145
S'atmega328p'
p146
sS'f_cpu'
p147
S'16000000L'
p148
sS'variant'
p149
S'standard'
p150
ssS'bootloader'
p151
(dp152
S'extended_fuses'
p153
S'0x05'
p154
sS'high_fuses'
p155
S'0xde'
p156
sS'low_fuses'
p157
S'0xff'
p158
sS'lock_bits'
p159
S'0x0F'
p160
sS'file'
p161
S'optiboot_atmega328.hex'
p162
sS'path'
p163
S'optiboot'
p164
sS'unlock_bits'
p165
S'0x3F'
p166
ssS'upload'
p167
(dp168
S'speed'
p169
S'115200'
p170
sS'maximum_size'
p171
S'32256'
p172
sS'protocol'
p173
S'arduino'
p174
ssS'name'
p175
S'Arduino Uno'
p176
sS'_coredir'
p177
S'/usr/share/arduino/hardware/arduino'
p178
saa(lp179
S'atmega328'
p180
a(dp181
S'build'
p182
(dp183
S'core'
p184
S'arduino'
p185
sS'mcu'
p186
S'atmega328p'
p187
sS'f_cpu'
p188
S'16000000L'
p189
sS'variant'
p190
S'standard'
p191
ssS'bootloader'
p192
(dp193
S'extended_fuses'
p194
S'0x05'
p195
sS'high_fuses'
p196
S'0xDA'
p197
sS'low_fuses'
p198
S'0xFF'
p199
sS'lock_bits'
p200
S'0x0F'
p201
sS'file'
p202
S'ATmegaBOOT_168_atmega328.hex'
p203
sS'path'
p204
S'atmega'
p205
sS'unlock_bits'
p206
S'0x3F'
p207
ssS'upload'
p208
(dp209
S'speed'
p210
S'57600'
p211
sS'maximum_size'
p212
S'30720'
p213
sS'protocol'
p214
S'arduino'
p215
ssS'name'
p216
S'Arduino Duemilanove w/ ATmega328'
p217
sg177
S'/usr/share/arduino/hardware/arduino'
p218
saa(lp219
S'diecimila'
p220
a(dp221
S'build'
p222
(dp223
S'core'
p224
S'arduino'
p225
sS'mcu'
p226
S'atmega168'
p227
sS'f_cpu'
p228
S'16000000L'
p229
sS'variant'
p230
S'standard'
p231
ssS'bootloader'
p232
(dp233
S'extended_fuses'
p234
S'0x00'
p235
sS'high_fuses'
p236
S'0xdd'
p237
sS'low_fuses'
p238
S'0xff'
p239
sS'lock_bits'
p240
S'0x0F'
p241
sS'file'
p242
S'ATmegaBOOT_168_diecimila.hex'
p243
sS'path'
p244
S'atmega'
p245
sS'unlock_bits'
p246
S'0x3F'
p247
ssS'upload'
p248
(dp249
S'speed'
p250
S'19200'
p251
sS'maximum_size'
p252
S'14336'
p253
sS'protocol'
p254
S'arduino'
p255
ssS'name'
p256
S'Arduino Diecimila or Duemilanove w/ ATmega168'
p257
sg177
S'/usr/share/arduino/hardware/arduino'
p258
saa(lp259
S'nano328'
p260
a(dp261
S'build'
p262
(dp263
S'core'
p264
S'arduino'
p265
sS'mcu'
p266
S'atmega328p'
p267
sS'f_cpu'
p268
S'16000000L'
p269
sS'variant'
p270
S'eightanaloginputs'
p271
ssS'bootloader'
p272
(dp273
S'extended_fuses'
p274
S'0x05'
p275
sS'high_fuses'
p276
S'0xDA'
p277
sS'low_fuses'
p278
S'0xFF'
p279
sS'lock_bits'
p280
S'0x0F'
p281
sS'file'
p282
S'ATmegaBOOT_168_atmega328.hex'
p283
sS'path'
p284
S'atmega'
p285
sS'unlock_bits'
p286
S'0x3F'
p287
ssS'upload'
p288
(dp289
S'speed'
p290
S'57600'
p291
sS'maximum_size'
p292
S'30720'
p293
sS'protocol'
p294
S'arduino'
p295
ssS'name'
p296
S'Arduino Nano w/ ATmega328'
p297
sg177
S'/usr/share/arduino/hardware/arduino'
p298
saa(lp299
S'nano'
p300
a(dp301
S'build'
p302
(dp303
S'core'
p304
S'arduino'
p305
sS'mcu'
p306
S'atmega168'
p307
sS'f_cpu'
p308
S'16000000L'
p309
sS'variant'
p310
S'eightanaloginputs'
p311
ssS'bootloader'
p312
(dp313
S'extended_fuses'
p314
S'0x00'
p315
sS'high_fuses'
p316
S'0xdd'
p317
sS'low_fuses'
p318
S'0xff'
p319
sS'lock_bits'
p320
S'0x0F'
p321
sS'file'
p322
S'ATmegaBOOT_168_diecimila.hex'
p323
sS'path'
p324
S'atmega'
p325
sS'unlock_bits'
p326
S'0x3F'
p327
ssS'upload'
p328
(dp329
S'speed'
p330
S'19200'
p331
sS'maximum_size'
p332
S'14336'
p333
sS'protocol'
p334
S'arduino'
p335
ssS'name'
p336
S'Arduino Nano w/ ATmega168'
p337
sg177
S'/usr/share/arduino/hardware/arduino'
p338
saa(lp339
S'mega2560'
p340
a(dp341
S'build'
p342
(dp343
S'core'
p344
S'arduino'
p345
sS'mcu'
p346
S'atmega2560'
p347
sS'f_cpu'
p348
S'16000000L'
p349
sS'variant'
p350
S'mega'
p351
ssS'bootloader'
p352
(dp353
S'extended_fuses'
p354
S'0xFD'
p355
sS'high_fuses'
p356
S'0xD8'
p357
sS'low_fuses'
p358
S'0xFF'
p359
sS'lock_bits'
p360
S'0x0F'
p361
sS'file'
p362
S'stk500boot_v2_mega2560.hex'
p363
sS'path'
p364
S'stk500v2'
p365
sS'unlock_bits'
p366
S'0x3F'
p367
ssS'upload'
p368
(dp369
S'speed'
p370
S'115200'
p371
sS'maximum_size'
p372
S'258048'
p373
sS'protocol'
p374
S'stk500v2'
p375
ssS'name'
p376
S'Arduino Mega 2560 or Mega ADK'
p377
sg177
S'/usr/share/arduino/hardware/arduino'
p378
saa(lp379
S'mega'
p380
a(dp381
S'build'
p382
(dp383
S'core'
p384
S'arduino'
p385
sS'mcu'
p386
S'atmega1280'
p387
sS'f_cpu'
p388
S'16000000L'
p389
sS'variant'
p390
S'mega'
p391
ssS'bootloader'
p392
(dp393
S'extended_fuses'
p394
S'0xF5'
p395
sS'high_fuses'
p396
S'0xDA'
p397
sS'low_fuses'
p398
S'0xFF'
p399
sS'lock_bits'
p400
S'0x0F'
p401
sS'file'
p402
S'ATmegaBOOT_168_atmega1280.hex'
p403
sS'path'
p404
S'atmega'
p405
sS'unlock_bits'
p406
S'0x3F'
p407
ssS'upload'
p408
(dp409
S'speed'
p410
S'57600'
p411
sS'maximum_size'
p412
S'126976'
p413
sS'protocol'
p414
S'arduino'
p415
ssS'name'
p416
S'Arduino Mega (ATmega1280)'
p417
sg177
S'/usr/share/arduino/hardware/arduino'
p418
saa(lp419
S'mini328'
p420
a(dp421
S'build'
p422
(dp423
S'core'
p424
S'arduino'
p425
sS'mcu'
p426
S'atmega328p'
p427
sS'f_cpu'
p428
S'16000000L'
p429
sS'variant'
p430
S'eightanaloginputs'
p431
ssS'bootloader'
p432
(dp433
S'extended_fuses'
p434
S'0x05'
p435
sS'high_fuses'
p436
S'0xd8'
p437
sS'low_fuses'
p438
S'0xff'
p439
sS'lock_bits'
p440
S'0x0F'
p441
sS'file'
p442
S'optiboot_atmega328-Mini.hex'
p443
sS'path'
p444
S'optiboot'
p445
sS'unlock_bits'
p446
S'0x3F'
p447
ssS'upload'
p448
(dp449
S'speed'
p450
S'115200'
p451
sS'maximum_size'
p452
S'28672'
p453
sS'protocol'
p454
S'stk500'
p455
ssS'name'
p456
S'Arduino Mini w/ ATmega328'
p457
sg177
S'/usr/share/arduino/hardware/arduino'
p458
saa(lp459
S'mini'
p460
a(dp461
S'build'
p462
(dp463
S'core'
p464
S'arduino'
p465
sS'mcu'
p466
S'atmega168'
p467
sS'f_cpu'
p468
S'16000000L'
p469
sS'variant'
p470
S'eightanaloginputs'
p471
ssS'bootloader'
p472
(dp473
S'extended_fuses'
p474
S'0x00'
p475
sS'high_fuses'
p476
S'0xdd'
p477
sS'low_fuses'
p478
S'0xff'
p479
sS'lock_bits'
p480
S'0x0F'
p481
sS'file'
p482
S'ATmegaBOOT_168_ng.hex'
p483
sS'path'
p484
S'atmega'
p485
sS'unlock_bits'
p486
S'0x3F'
p487
ssS'upload'
p488
(dp489
S'speed'
p490
S'19200'
p491
sS'maximum_size'
p492
S'14336'
p493
sS'protocol'
p494
S'arduino'
p495
ssS'name'
p496
S'Arduino Mini w/ ATmega168'
p497
sg177
S'/usr/share/arduino/hardware/arduino'
p498
saa(lp499
S'ethernet'
p500
a(dp501
S'build'
p502
(dp503
S'f_cpu'
p504
S'16000000L'
p505
sS'mcu'
p506
S'atmega328p'
p507
sS'variant'
p508
S'standard'
p509
sS'core'
p510
S'arduino'
p511
ssS'bootloader'
p512
(dp513
S'extended_fuses'
p514
S'0x05'
p515
sS'high_fuses'
p516
S'0xde'
p517
sS'low_fuses'
p518
S'0xff'
p519
sS'lock_bits'
p520
S'0x0F'
p521
sS'file'
p522
S'optiboot_atmega328.hex'
p523
sS'path'
p524
S'optiboot'
p525
sS'unlock_bits'
p526
S'0x3F'
p527
ssS'upload'
p528
(dp529
S'speed'
p530
S'115200'
p531
sS'maximum_size'
p532
S'32256'
p533
sS'protocol'
p534
S'arduino'
p535
ssS'name'
p536
S'Arduino Ethernet'
p537
sg177
S'/usr/share/arduino/hardware/arduino'
p538
saa(lp539
S'fio'
p540
a(dp541
S'build'
p542
(dp543
S'core'
p544
S'arduino'
p545
sS'mcu'
p546
S'atmega328p'
p547
sS'f_cpu'
p548
S'8000000L'
p549
sS'variant'
p550
S'eightanaloginputs'
p551
ssS'bootloader'
p552
(dp553
S'extended_fuses'
p554
S'0x05'
p555
sS'high_fuses'
p556
S'0xDA'
p557
sS'low_fuses'
p558
S'0xFF'
p559
sS'lock_bits'
p560
S'0x0F'
p561
sS'file'
p562
S'ATmegaBOOT_168_atmega328_pro_8MHz.hex'
p563
sS'path'
p564
S'arduino:atmega'
p565
sS'unlock_bits'
p566
S'0x3F'
p567
ssS'upload'
p568
(dp569
S'speed'
p570
S'57600'
p571
sS'maximum_size'
p572
S'30720'
p573
sS'protocol'
p574
S'arduino'
p575
ssS'name'
p576
S'Arduino Fio'
p577
sg177
S'/usr/share/arduino/hardware/arduino'
p578
saa(lp579
S'bt328'
p580
a(dp581
S'build'
p582
(dp583
S'core'
p584
S'arduino'
p585
sS'mcu'
p586
S'atmega328p'
p587
sS'f_cpu'
p588
S'16000000L'
p589
sS'variant'
p590
S'eightanaloginputs'
p591
ssS'bootloader'
p592
(dp593
S'extended_fuses'
p594
S'0x05'
p595
sS'high_fuses'
p596
S'0xd8'
p597
sS'low_fuses'
p598
S'0xff'
p599
sS'lock_bits'
p600
S'0x0F'
p601
sS'file'
p602
S'ATmegaBOOT_168_atmega328_bt.hex'
p603
sS'path'
p604
S'bt'
p605
sS'unlock_bits'
p606
S'0x3F'
p607
ssS'upload'
p608
(dp609
S'speed'
p610
S'19200'
p611
sS'maximum_size'
p612
S'28672'
p613
sS'protocol'
p614
S'arduino'
p615
sS'disable_flushing'
p616
S'true'
p617
ssS'name'
p618
S'Arduino BT w/ ATmega328'
p619
sg177
S'/usr/share/arduino/hardware/arduino'
p620
saa(lp621
S'bt'
p622
a(dp623
S'build'
p624
(dp625
S'core'
p626
S'arduino'
p627
sS'mcu'
p628
S'atmega168'
p629
sS'f_cpu'
p630
S'16000000L'
p631
sS'variant'
p632
S'eightanaloginputs'
p633
ssS'bootloader'
p634
(dp635
S'extended_fuses'
p636
S'0x00'
p637
sS'high_fuses'
p638
S'0xdd'
p639
sS'low_fuses'
p640
S'0xff'
p641
sS'lock_bits'
p642
S'0x0F'
p643
sS'file'
p644
S'ATmegaBOOT_168.hex'
p645
sS'path'
p646
S'bt'
p647
sS'unlock_bits'
p648
S'0x3F'
p649
ssS'upload'
p650
(dp651
S'speed'
p652
S'19200'
p653
sS'maximum_size'
p654
S'14336'
p655
sS'protocol'
p656
S'arduino'
p657
sS'disable_flushing'
p658
S'true'
p659
ssS'name'
p660
S'Arduino BT w/ ATmega168'
p661
sg177
S'/usr/share/arduino/hardware/arduino'
p662
saa(lp663
S'lilypad328'
p664
a(dp665
S'build'
p666
(dp667
S'core'
p668
S'arduino'
p669
sS'mcu'
p670
S'atmega328p'
p671
sS'f_cpu'
p672
S'8000000L'
p673
sS'variant'
p674
S'standard'
p675
ssS'bootloader'
p676
(dp677
S'extended_fuses'
p678
S'0x05'
p679
sS'high_fuses'
p680
S'0xDA'
p681
sS'low_fuses'
p682
S'0xFF'
p683
sS'lock_bits'
p684
S'0x0F'
p685
sS'file'
p686
S'ATmegaBOOT_168_atmega328_pro_8MHz.hex'
p687
sS'path'
p688
S'atmega'
p689
sS'unlock_bits'
p690
S'0x3F'
p691
ssS'upload'
p692
(dp693
S'speed'
p694
S'57600'
p695
sS'maximum_size'
p696
S'30720'
p697
sS'protocol'
p698
S'arduino'
p699
ssS'name'
p700
S'LilyPad Arduino w/ ATmega328'
p701
sg177
S'/usr/share/arduino/hardware/arduino'
p702
saa(lp703
S'lilypad'
p704
a(dp705
S'build'
p706
(dp707
S'core'
p708
S'arduino'
p709
sS'mcu'
p710
S'atmega168'
p711
sS'f_cpu'
p712
S'8000000L'
p713
sS'variant'
p714
S'standard'
p715
ssS'bootloader'
p716
(dp717
S'extended_fuses'
p718
S'0x00'
p719
sS'high_fuses'
p720
S'0xdd'
p721
sS'low_fuses'
p722
S'0xe2'
p723
sS'lock_bits'
p724
S'0x0F'
p725
sS'file'
p726
S'LilyPadBOOT_168.hex'
p727
sS'path'
p728
S'lilypad'
p729
sS'unlock_bits'
p730
S'0x3F'
p731
ssS'upload'
p732
(dp733
S'speed'
p734
S'19200'
p735
sS'maximum_size'
p736
S'14336'
p737
sS'protocol'
p738
S'arduino'
p739
ssS'name'
p740
S'LilyPad Arduino w/ ATmega168'
p741
sg177
S'/usr/share/arduino/hardware/arduino'
p742
saa(lp743
S'pro5v328'
p744
a(dp745
S'build'
p746
(dp747
S'core'
p748
S'arduino'
p749
sS'mcu'
p750
S'atmega328p'
p751
sS'f_cpu'
p752
S'16000000L'
p753
sS'variant'
p754
S'standard'
p755
ssS'bootloader'
p756
(dp757
S'extended_fuses'
p758
S'0x05'
p759
sS'high_fuses'
p760
S'0xDA'
p761
sS'low_fuses'
p762
S'0xFF'
p763
sS'lock_bits'
p764
S'0x0F'
p765
sS'file'
p766
S'ATmegaBOOT_168_atmega328.hex'
p767
sS'path'
p768
S'atmega'
p769
sS'unlock_bits'
p770
S'0x3F'
p771
ssS'upload'
p772
(dp773
S'speed'
p774
S'57600'
p775
sS'maximum_size'
p776
S'30720'
p777
sS'protocol'
p778
S'arduino'
p779
ssS'name'
p780
S'Arduino Pro or Pro Mini (5V, 16 MHz) w/ ATmega328'
p781
sg177
S'/usr/share/arduino/hardware/arduino'
p782
saa(lp783
S'pro5v'
p784
a(dp785
S'build'
p786
(dp787
S'core'
p788
S'arduino'
p789
sS'mcu'
p790
S'atmega168'
p791
sS'f_cpu'
p792
S'16000000L'
p793
sS'variant'
p794
S'standard'
p795
ssS'bootloader'
p796
(dp797
S'extended_fuses'
p798
S'0x00'
p799
sS'high_fuses'
p800
S'0xdd'
p801
sS'low_fuses'
p802
S'0xff'
p803
sS'lock_bits'
p804
S'0x0F'
p805
sS'file'
p806
S'ATmegaBOOT_168_diecimila.hex'
p807
sS'path'
p808
S'atmega'
p809
sS'unlock_bits'
p810
S'0x3F'
p811
ssS'upload'
p812
(dp813
S'speed'
p814
S'19200'
p815
sS'maximum_size'
p816
S'14336'
p817
sS'protocol'
p818
S'arduino'
p819
ssS'name'
p820
S'Arduino Pro or Pro Mini (5V, 16 MHz) w/ ATmega168'
p821
sg177
S'/usr/share/arduino/hardware/arduino'
p822
saa(lp823
S'pro328'
p824
a(dp825
S'build'
p826
(dp827
S'core'
p828
S'arduino'
p829
sS'mcu'
p830
S'atmega328p'
p831
sS'f_cpu'
p832
S'8000000L'
p833
sS'variant'
p834
S'standard'
p835
ssS'bootloader'
p836
(dp837
S'extended_fuses'
p838
S'0x05'
p839
sS'high_fuses'
p840
S'0xDA'
p841
sS'low_fuses'
p842
S'0xFF'
p843
sS'lock_bits'
p844
S'0x0F'
p845
sS'file'
p846
S'ATmegaBOOT_168_atmega328_pro_8MHz.hex'
p847
sS'path'
p848
S'atmega'
p849
sS'unlock_bits'
p850
S'0x3F'
p851
ssS'upload'
p852
(dp853
S'speed'
p854
S'57600'
p855
sS'maximum_size'
p856
S'30720'
p857
sS'protocol'
p858
S'arduino'
p859
ssS'name'
p860
S'Arduino Pro or Pro Mini (3.3V, 8 MHz) w/ ATmega328'
p861
sg177
S'/usr/share/arduino/hardware/arduino'
p862
saa(lp863
S'pro'
p864
a(dp865
S'build'
p866
(dp867
S'core'
p868
S'arduino'
p869
sS'mcu'
p870
S'atmega168'
p871
sS'f_cpu'
p872
S'8000000L'
p873
sS'variant'
p874
S'standard'
p875
ssS'bootloader'
p876
(dp877
S'extended_fuses'
p878
S'0x00'
p879
sS'high_fuses'
p880
S'0xdd'
p881
sS'low_fuses'
p882
S'0xc6'
p883
sS'lock_bits'
p884
S'0x0F'
p885
sS'file'
p886
S'ATmegaBOOT_168_pro_8MHz.hex'
p887
sS'path'
p888
S'atmega'
p889
sS'unlock_bits'
p890
S'0x3F'
p891
ssS'upload'
p892
(dp893
S'speed'
p894
S'19200'
p895
sS'maximum_size'
p896
S'14336'
p897
sS'protocol'
p898
S'arduino'
p899
ssS'name'
p900
S'Arduino Pro or Pro Mini (3.3V, 8 MHz) w/ ATmega168'
p901
sg177
S'/usr/share/arduino/hardware/arduino'
p902
saa(lp903
S'atmega168'
p904
a(dp905
S'build'
p906
(dp907
S'core'
p908
S'arduino'
p909
sS'mcu'
p910
S'atmega168'
p911
sS'f_cpu'
p912
S'16000000L'
p913
sS'variant'
p914
S'standard'
p915
ssS'bootloader'
p916
(dp917
S'extended_fuses'
p918
S'0x00'
p919
sS'high_fuses'
p920
S'0xdd'
p921
sS'low_fuses'
p922
S'0xff'
p923
sS'lock_bits'
p924
S'0x0F'
p925
sS'file'
p926
S'ATmegaBOOT_168_ng.hex'
p927
sS'path'
p928
S'atmega'
p929
sS'unlock_bits'
p930
S'0x3F'
p931
ssS'upload'
p932
(dp933
S'speed'
p934
S'19200'
p935
sS'maximum_size'
p936
S'14336'
p937
sS'protocol'
p938
S'arduino'
p939
ssS'name'
p940
S'Arduino NG or older w/ ATmega168'
p941
sg177
S'/usr/share/arduino/hardware/arduino'
p942
saa(lp943
S'atmega8'
p944
a(dp945
S'build'
p946
(dp947
S'core'
p948
S'arduino'
p949
sS'mcu'
p950
S'atmega8'
p951
sS'f_cpu'
p952
S'16000000L'
p953
sS'variant'
p954
S'standard'
p955
ssS'bootloader'
p956
(dp957
S'high_fuses'
p958
S'0xca'
p959
sS'low_fuses'
p960
S'0xdf'
p961
sS'lock_bits'
p962
S'0x0F'
p963
sS'file'
p964
S'ATmegaBOOT.hex'
p965
sS'path'
p966
S'atmega8'
p967
sS'unlock_bits'
p968
S'0x3F'
p969
ssS'upload'
p970
(dp971
S'speed'
p972
S'19200'
p973
sS'maximum_size'
p974
S'7168'
p975
sS'protocol'
p976
S'arduino'
p977
ssS'name'
p978
S'Arduino NG or older w/ ATmega8'
p979
sg177
S'/usr/share/arduino/hardware/arduino'
p980
saatp981
Rp982
(dp983
S'default'
p984
S'uno'
p985
sbtp986
a(S'cxx'
p987
S'/usr/bin/avr-g++'
p988
tp989
a.